; Function Attrs: nounwind uwtable
define range(i32 -1, 1) i32 @H5G_init() local_unnamed_addr #0 {
  %1 = tail call i32 @H5I_register_type(ptr noundef nonnull @H5I_GROUP_CLS) #10
  %2 = icmp slt i32 %1, 0
  br i1 %2, label %3, label %7

3:                                                ; preds = %0
  %4 = load i64, ptr @H5E_SYM_g, align 8
  %5 = load i64, ptr @H5E_CANTINIT_g, align 8
  %6 = tail call i32 (ptr, ptr, i32, i64, i64, ptr, ...) @H5E_printf_stack(ptr noundef nonnull @.str.3, ptr noundef nonnull @__func__.H5G_init, i32 noundef 133, i64 noundef %4, i64 noundef %5, ptr noundef nonnull @.str.4) #10
  br label %7

7:                                                ; preds = %0, %3
  %.0 = phi i32 [ -1, %3 ], [ 0, %0 ]
  ret i32 %.0
}